target datalayout = "e-m:e-p270:32:32-p271:32:32-p272:64:64-i64:64-i128:128-f80:128-n8:16:32:64-S128"
target triple = "x86_64-pc-linux-gnu"

%struct.asn1_string_st = type { i32, i32, ptr, i64 }
%struct.X509_algor_st = type { ptr, ptr }
%struct.x509_st = type { %struct.x509_cinf_st, %struct.X509_algor_st, %struct.asn1_string_st, %struct.x509_sig_info_st, %struct.CRYPTO_REF_COUNT, %struct.crypto_ex_data_st, i64, i64, i32, i32, i32, i32, ptr, ptr, ptr, ptr, ptr, ptr, ptr, ptr, [20 x i8], ptr, ptr, i32, ptr, ptr, ptr }
%struct.x509_cinf_st = type { ptr, %struct.asn1_string_st, %struct.X509_algor_st, ptr, %struct.X509_val_st, ptr, ptr, ptr, ptr, ptr, %struct.ASN1_ENCODING_st }
%struct.X509_val_st = type { ptr, ptr }
%struct.ASN1_ENCODING_st = type { ptr, i64, i32 }
%struct.x509_sig_info_st = type { i32, i32, i32, i32 }
%struct.CRYPTO_REF_COUNT = type { i32 }
%struct.crypto_ex_data_st = type { ptr, ptr }

@.str = private unnamed_addr constant [32 x i8] c"../openssl/crypto/x509/t_x509.c\00", align 1
@.str.7 = private unnamed_addr constant [2 x i8] c"\0A\00", align 1
@.str.20 = private unnamed_addr constant [28 x i8] c"        Subject OCSP hash: \00", align 1
@.str.21 = private unnamed_addr constant [5 x i8] c"SHA1\00", align 1
@.str.22 = private unnamed_addr constant [5 x i8] c"%02X\00", align 1
@.str.23 = private unnamed_addr constant [32 x i8] c"\0A        Public key OCSP hash: \00", align 1

; Function Attrs: nounwind uwtable
define i32 @X509_ocspid_print(ptr noundef %0, ptr noundef %1) #0 {
  %3 = alloca i32, align 4
  %4 = alloca ptr, align 8
  %5 = alloca ptr, align 8
  %6 = alloca ptr, align 8
  %7 = alloca ptr, align 8
  %8 = alloca i32, align 4
  %9 = alloca i32, align 4
  %10 = alloca [20 x i8], align 16
  %11 = alloca ptr, align 8
  %12 = alloca ptr, align 8
  %13 = alloca ptr, align 8
  %14 = alloca i32, align 4
  store ptr %0, ptr %4, align 8, !tbaa !15
  store ptr %1, ptr %5, align 8, !tbaa !11
  call void @llvm.lifetime.start.p0(i64 8, ptr %6) #4
  store ptr null, ptr %6, align 8, !tbaa !34
  call void @llvm.lifetime.start.p0(i64 8, ptr %7) #4
  call void @llvm.lifetime.start.p0(i64 4, ptr %8) #4
  call void @llvm.lifetime.start.p0(i64 4, ptr %9) #4
  call void @llvm.lifetime.start.p0(i64 20, ptr %10) #4
  call void @llvm.lifetime.start.p0(i64 8, ptr %11) #4
  call void @llvm.lifetime.start.p0(i64 8, ptr %12) #4
  call void @llvm.lifetime.start.p0(i64 8, ptr %13) #4
  store ptr null, ptr %13, align 8, !tbaa !51
  %15 = load ptr, ptr %5, align 8, !tbaa !11
  %16 = icmp eq ptr %15, null
  br i1 %16, label %20, label %17

17:                                               ; preds = %2
  %18 = load ptr, ptr %4, align 8, !tbaa !15
  %19 = icmp eq ptr %18, null
  br i1 %19, label %20, label %21

20:                                               ; preds = %17, %2
  store i32 0, ptr %3, align 4
  store i32 1, ptr %14, align 4
  br label %128

21:                                               ; preds = %17
  %22 = load ptr, ptr %4, align 8, !tbaa !15
  %23 = call i32 (ptr, ptr, ...) @BIO_printf(ptr noundef %22, ptr noundef @.str.20)
  %24 = icmp sle i32 %23, 0
  br i1 %24, label %25, label %26

25:                                               ; preds = %21
  br label %125

26:                                               ; preds = %21
  %27 = load ptr, ptr %5, align 8, !tbaa !11
  %28 = call ptr @X509_get_subject_name(ptr noundef %27)
  store ptr %28, ptr %12, align 8, !tbaa !53
  %29 = load ptr, ptr %12, align 8, !tbaa !53
  %30 = call i32 @i2d_X509_NAME(ptr noundef %29, ptr noundef null)
  store i32 %30, ptr %8, align 4, !tbaa !17
  %31 = load i32, ptr %8, align 4, !tbaa !17
  %32 = icmp sle i32 %31, 0
  br i1 %32, label %33, label %34

33:                                               ; preds = %26
  br label %125

34:                                               ; preds = %26
  %35 = load i32, ptr %8, align 4, !tbaa !17
  %36 = sext i32 %35 to i64
  %37 = call noalias ptr @CRYPTO_malloc(i64 noundef %36, ptr noundef @.str, i32 noundef 220)
  store ptr %37, ptr %7, align 8, !tbaa !34
  store ptr %37, ptr %6, align 8, !tbaa !34
  %38 = icmp eq ptr %37, null
  br i1 %38, label %39, label %40

39:                                               ; preds = %34
  br label %125

40:                                               ; preds = %34
  %41 = load ptr, ptr %12, align 8, !tbaa !53
  %42 = call i32 @i2d_X509_NAME(ptr noundef %41, ptr noundef %7)
  %43 = load ptr, ptr %5, align 8, !tbaa !11
  %44 = getelementptr inbounds nuw %struct.x509_st, ptr %43, i32 0, i32 25
  %45 = load ptr, ptr %44, align 8, !tbaa !55
  %46 = load ptr, ptr %5, align 8, !tbaa !11
  %47 = getelementptr inbounds nuw %struct.x509_st, ptr %46, i32 0, i32 26
  %48 = load ptr, ptr %47, align 8, !tbaa !74
  %49 = call ptr @EVP_MD_fetch(ptr noundef %45, ptr noundef @.str.21, ptr noundef %48)
  store ptr %49, ptr %13, align 8, !tbaa !51
  %50 = load ptr, ptr %13, align 8, !tbaa !51
  %51 = icmp eq ptr %50, null
  br i1 %51, label %52, label %53

52:                                               ; preds = %40
  br label %125

53:                                               ; preds = %40
  %54 = load ptr, ptr %6, align 8, !tbaa !34
  %55 = load i32, ptr %8, align 4, !tbaa !17
  %56 = sext i32 %55 to i64
  %57 = getelementptr inbounds [20 x i8], ptr %10, i64 0, i64 0
  %58 = load ptr, ptr %13, align 8, !tbaa !51
  %59 = call i32 @EVP_Digest(ptr noundef %54, i64 noundef %56, ptr noundef %57, ptr noundef null, ptr noundef %58, ptr noundef null)
  %60 = icmp ne i32 %59, 0
  br i1 %60, label %62, label %61

61:                                               ; preds = %53
  br label %125

62:                                               ; preds = %53
  store i32 0, ptr %9, align 4, !tbaa !17
  br label %63

63:                                               ; preds = %77, %62
  %64 = load i32, ptr %9, align 4, !tbaa !17
  %65 = icmp slt i32 %64, 20
  br i1 %65, label %66, label %80

66:                                               ; preds = %63
  %67 = load ptr, ptr %4, align 8, !tbaa !15
  %68 = load i32, ptr %9, align 4, !tbaa !17
  %69 = sext i32 %68 to i64
  %70 = getelementptr inbounds [20 x i8], ptr %10, i64 0, i64 %69
  %71 = load i8, ptr %70, align 1, !tbaa !19
  %72 = zext i8 %71 to i32
  %73 = call i32 (ptr, ptr, ...) @BIO_printf(ptr noundef %67, ptr noundef @.str.22, i32 noundef %72)
  %74 = icmp sle i32 %73, 0
  br i1 %74, label %75, label %76

75:                                               ; preds = %66
  br label %125

76:                                               ; preds = %66
  br label %77

77:                                               ; preds = %76
  %78 = load i32, ptr %9, align 4, !tbaa !17
  %79 = add nsw i32 %78, 1
  store i32 %79, ptr %9, align 4, !tbaa !17
  br label %63, !llvm.loop !75

80:                                               ; preds = %63
  %81 = load ptr, ptr %6, align 8, !tbaa !34
  call void @CRYPTO_free(ptr noundef %81, ptr noundef @.str, i32 noundef 233)
  store ptr null, ptr %6, align 8, !tbaa !34
  %82 = load ptr, ptr %4, align 8, !tbaa !15
  %83 = call i32 (ptr, ptr, ...) @BIO_printf(ptr noundef %82, ptr noundef @.str.23)
  %84 = icmp sle i32 %83, 0
  br i1 %84, label %85, label %86

85:                                               ; preds = %80
  br label %125

86:                                               ; preds = %80
  %87 = load ptr, ptr %5, align 8, !tbaa !11
  %88 = call ptr @X509_get0_pubkey_bitstr(ptr noundef %87)
  store ptr %88, ptr %11, align 8, !tbaa !22
  %89 = load ptr, ptr %11, align 8, !tbaa !22
  %90 = icmp eq ptr %89, null
  br i1 %90, label %91, label %92

91:                                               ; preds = %86
  br label %125

92:                                               ; preds = %86
  %93 = load ptr, ptr %11, align 8, !tbaa !22
  %94 = call ptr @ASN1_STRING_get0_data(ptr noundef %93)
  %95 = load ptr, ptr %11, align 8, !tbaa !22
  %96 = call i32 @ASN1_STRING_length(ptr noundef %95)
  %97 = sext i32 %96 to i64
  %98 = getelementptr inbounds [20 x i8], ptr %10, i64 0, i64 0
  %99 = load ptr, ptr %13, align 8, !tbaa !51
  %100 = call i32 @EVP_Digest(ptr noundef %94, i64 noundef %97, ptr noundef %98, ptr noundef null, ptr noundef %99, ptr noundef null)
  %101 = icmp ne i32 %100, 0
  br i1 %101, label %103, label %102

102:                                              ; preds = %92
  br label %125

103:                                              ; preds = %92
  store i32 0, ptr %9, align 4, !tbaa !17
  br label %104

104:                                              ; preds = %118, %103
  %105 = load i32, ptr %9, align 4, !tbaa !17
  %106 = icmp slt i32 %105, 20
  br i1 %106, label %107, label %121

107:                                              ; preds = %104
  %108 = load ptr, ptr %4, align 8, !tbaa !15
  %109 = load i32, ptr %9, align 4, !tbaa !17
  %110 = sext i32 %109 to i64
  %111 = getelementptr inbounds [20 x i8], ptr %10, i64 0, i64 %110
  %112 = load i8, ptr %111, align 1, !tbaa !19
  %113 = zext i8 %112 to i32
  %114 = call i32 (ptr, ptr, ...) @BIO_printf(ptr noundef %108, ptr noundef @.str.22, i32 noundef %113)
  %115 = icmp sle i32 %114, 0
  br i1 %115, label %116, label %117

116:                                              ; preds = %107
  br label %125

117:                                              ; preds = %107
  br label %118

118:                                              ; preds = %117
  %119 = load i32, ptr %9, align 4, !tbaa !17
  %120 = add nsw i32 %119, 1
  store i32 %120, ptr %9, align 4, !tbaa !17
  br label %104, !llvm.loop !76

121:                                              ; preds = %104
  %122 = load ptr, ptr %4, align 8, !tbaa !15
  %123 = call i32 (ptr, ptr, ...) @BIO_printf(ptr noundef %122, ptr noundef @.str.7)
  %124 = load ptr, ptr %13, align 8, !tbaa !51
  call void @EVP_MD_free(ptr noundef %124)
  store i32 1, ptr %3, align 4
  store i32 1, ptr %14, align 4
  br label %128

125:                                              ; preds = %116, %102, %91, %85, %75, %61, %52, %39, %33, %25
  %126 = load ptr, ptr %6, align 8, !tbaa !34
  call void @CRYPTO_free(ptr noundef %126, ptr noundef @.str, i32 noundef 259)
  %127 = load ptr, ptr %13, align 8, !tbaa !51
  call void @EVP_MD_free(ptr noundef %127)
  store i32 0, ptr %3, align 4
  store i32 1, ptr %14, align 4
  br label %128

128:                                              ; preds = %125, %121, %20
  call void @llvm.lifetime.end.p0(i64 8, ptr %13) #4
  call void @llvm.lifetime.end.p0(i64 8, ptr %12) #4
  call void @llvm.lifetime.end.p0(i64 8, ptr %11) #4
  call void @llvm.lifetime.end.p0(i64 20, ptr %10) #4
  call void @llvm.lifetime.end.p0(i64 4, ptr %9) #4
  call void @llvm.lifetime.end.p0(i64 4, ptr %8) #4
  call void @llvm.lifetime.end.p0(i64 8, ptr %7) #4
  call void @llvm.lifetime.end.p0(i64 8, ptr %6) #4
  %129 = load i32, ptr %3, align 4
  ret i32 %129
}