; Function Attrs: nounwind uwtable
define range(i32 0, 2) i32 @X509_ocspid_print(ptr noundef %0, ptr noundef %1) local_unnamed_addr #0 {
  %3 = alloca ptr, align 8
  %4 = alloca [20 x i8], align 16
  call void @llvm.lifetime.start.p0(i64 8, ptr nonnull %3) #4
  call void @llvm.lifetime.start.p0(i64 20, ptr nonnull %4) #4
  %5 = icmp eq ptr %1, null
  %6 = icmp eq ptr %0, null
  %or.cond = or i1 %6, %5
  br i1 %or.cond, label %53, label %7

7:                                                ; preds = %2
  %8 = tail call i32 (ptr, ptr, ...) @BIO_printf(ptr noundef nonnull %0, ptr noundef nonnull @.str.20) #4
  %9 = icmp slt i32 %8, 1
  br i1 %9, label %.loopexit, label %10

10:                                               ; preds = %7
  %11 = tail call ptr @X509_get_subject_name(ptr noundef nonnull %1) #4
  %12 = tail call i32 @i2d_X509_NAME(ptr noundef %11, ptr noundef null) #4
  %13 = icmp slt i32 %12, 1
  br i1 %13, label %.loopexit, label %14

14:                                               ; preds = %10
  %15 = zext nneg i32 %12 to i64
  %16 = tail call noalias ptr @CRYPTO_malloc(i64 noundef %15, ptr noundef nonnull @.str, i32 noundef 220) #4
  store ptr %16, ptr %3, align 8, !tbaa !32
  %17 = icmp eq ptr %16, null
  br i1 %17, label %.loopexit, label %18

18:                                               ; preds = %14
  %19 = call i32 @i2d_X509_NAME(ptr noundef %11, ptr noundef nonnull %3) #4
  %20 = getelementptr inbounds nuw i8, ptr %1, i64 368
  %21 = load ptr, ptr %20, align 8, !tbaa !33
  %22 = getelementptr inbounds nuw i8, ptr %1, i64 376
  %23 = load ptr, ptr %22, align 8, !tbaa !54
  %24 = call ptr @EVP_MD_fetch(ptr noundef %21, ptr noundef nonnull @.str.21, ptr noundef %23) #4
  %25 = icmp eq ptr %24, null
  br i1 %25, label %.loopexit, label %26

26:                                               ; preds = %18
  %27 = call i32 @EVP_Digest(ptr noundef nonnull %16, i64 noundef %15, ptr noundef nonnull %4, ptr noundef null, ptr noundef nonnull %24, ptr noundef null) #4
  %.not = icmp eq i32 %27, 0
  br i1 %.not, label %.loopexit, label %.preheader46

28:                                               ; preds = %.preheader46
  %indvars.iv.next = add nuw nsw i64 %indvars.iv, 1
  %exitcond.not = icmp eq i64 %indvars.iv.next, 20
  br i1 %exitcond.not, label %34, label %.preheader46, !llvm.loop !55

.preheader46:                                     ; preds = %26, %28
  %indvars.iv = phi i64 [ %indvars.iv.next, %28 ], [ 0, %26 ]
  %29 = getelementptr inbounds nuw [20 x i8], ptr %4, i64 0, i64 %indvars.iv
  %30 = load i8, ptr %29, align 1, !tbaa !19
  %31 = zext i8 %30 to i32
  %32 = call i32 (ptr, ptr, ...) @BIO_printf(ptr noundef nonnull %0, ptr noundef nonnull @.str.22, i32 noundef %31) #4
  %33 = icmp slt i32 %32, 1
  br i1 %33, label %.loopexit, label %28

34:                                               ; preds = %28
  call void @CRYPTO_free(ptr noundef nonnull %16, ptr noundef nonnull @.str, i32 noundef 233) #4
  %35 = call i32 (ptr, ptr, ...) @BIO_printf(ptr noundef nonnull %0, ptr noundef nonnull @.str.23) #4
  %36 = icmp slt i32 %35, 1
  br i1 %36, label %.loopexit, label %37

37:                                               ; preds = %34
  %38 = call ptr @X509_get0_pubkey_bitstr(ptr noundef nonnull %1) #4
  %39 = icmp eq ptr %38, null
  br i1 %39, label %.loopexit, label %40

40:                                               ; preds = %37
  %41 = call ptr @ASN1_STRING_get0_data(ptr noundef nonnull %38) #4
  %42 = call i32 @ASN1_STRING_length(ptr noundef nonnull %38) #4
  %43 = sext i32 %42 to i64
  %44 = call i32 @EVP_Digest(ptr noundef %41, i64 noundef %43, ptr noundef nonnull %4, ptr noundef null, ptr noundef nonnull %24, ptr noundef null) #4
  %.not45 = icmp eq i32 %44, 0
  br i1 %.not45, label %.loopexit, label %.preheader

45:                                               ; preds = %.preheader
  %indvars.iv.next53 = add nuw nsw i64 %indvars.iv52, 1
  %exitcond55.not = icmp eq i64 %indvars.iv.next53, 20
  br i1 %exitcond55.not, label %51, label %.preheader, !llvm.loop !56

.preheader:                                       ; preds = %40, %45
  %indvars.iv52 = phi i64 [ %indvars.iv.next53, %45 ], [ 0, %40 ]
  %46 = getelementptr inbounds nuw [20 x i8], ptr %4, i64 0, i64 %indvars.iv52
  %47 = load i8, ptr %46, align 1, !tbaa !19
  %48 = zext i8 %47 to i32
  %49 = call i32 (ptr, ptr, ...) @BIO_printf(ptr noundef nonnull %0, ptr noundef nonnull @.str.22, i32 noundef %48) #4
  %50 = icmp slt i32 %49, 1
  br i1 %50, label %.loopexit, label %45

51:                                               ; preds = %45
  %52 = call i32 (ptr, ptr, ...) @BIO_printf(ptr noundef nonnull %0, ptr noundef nonnull @.str.7) #4
  br label %.sink.split

.loopexit:                                        ; preds = %.preheader46, %.preheader, %40, %37, %34, %26, %18, %14, %10, %7
  %.035 = phi ptr [ null, %7 ], [ null, %10 ], [ null, %14 ], [ %16, %18 ], [ null, %34 ], [ null, %37 ], [ null, %40 ], [ %16, %26 ], [ null, %.preheader ], [ %16, %.preheader46 ]
  %.0 = phi ptr [ null, %7 ], [ null, %10 ], [ null, %14 ], [ null, %18 ], [ %24, %34 ], [ %24, %37 ], [ %24, %40 ], [ %24, %26 ], [ %24, %.preheader ], [ %24, %.preheader46 ]
  call void @CRYPTO_free(ptr noundef %.035, ptr noundef nonnull @.str, i32 noundef 259) #4
  br label %.sink.split

.sink.split:                                      ; preds = %51, %.loopexit
  %.0.sink = phi ptr [ %.0, %.loopexit ], [ %24, %51 ]
  %.034.ph = phi i32 [ 0, %.loopexit ], [ 1, %51 ]
  call void @EVP_MD_free(ptr noundef %.0.sink) #4
  br label %53

53:                                               ; preds = %.sink.split, %2
  %.034 = phi i32 [ 0, %2 ], [ %.034.ph, %.sink.split ]
  call void @llvm.lifetime.end.p0(i64 20, ptr nonnull %4) #4
  call void @llvm.lifetime.end.p0(i64 8, ptr nonnull %3) #4
  ret i32 %.034
}